target datalayout = "e-m:e-p270:32:32-p271:32:32-p272:64:64-i64:64-i128:128-f80:128-n8:16:32:64-S128"
target triple = "x86_64-unknown-linux-gnu"

%"union.icu_75::Transliterator::Token" = type { ptr }
%"class.icu_75::UnicodeString" = type { %"class.icu_75::Replaceable", %"union.icu_75::UnicodeString::StackBufferOrFields" }
%"class.icu_75::Replaceable" = type { %"class.icu_75::UObject" }
%"class.icu_75::UObject" = type { ptr }
%"union.icu_75::UnicodeString::StackBufferOrFields" = type { %struct.anon.0, [32 x i8] }
%struct.anon.0 = type { i16, i32, i32, ptr }
%"class.icu_75::ConstChar16Ptr" = type { ptr }

@_ZN6icu_75L7PERLPREE = internal constant [4 x i16] [i16 92, i16 120, i16 123, i16 0], align 2
@_ZN6icu_75L6RBRACEE = internal constant [2 x i16] [i16 125, i16 0], align 2
@_ZN6icu_7520EscapeTransliteratorC1ERKNS_13UnicodeStringES3_S3_iiaPS0_ = unnamed_addr alias void (ptr, ptr, ptr, ptr, i32, i32, i8, ptr), ptr @_ZN6icu_7520EscapeTransliteratorC2ERKNS_13UnicodeStringES3_S3_iiaPS0_

; Function Attrs: mustprogress nounwind uwtable
define linkonce_odr void @_ZN6icu_7514ConstChar16PtrD2Ev(ptr noundef nonnull align 8 dereferenceable(8) %this) unnamed_addr #0 comdat align 2 {
entry:
  %this.addr = alloca ptr, align 8
  store ptr %this, ptr %this.addr, align 8
  %this1 = load ptr, ptr %this.addr, align 8
  %p_ = getelementptr inbounds %"class.icu_75::ConstChar16Ptr", ptr %this1, i32 0, i32 0
  %0 = load ptr, ptr %p_, align 8
  call void asm sideeffect "", "rm,~{memory},~{dirflag},~{fpsr},~{flags}"(ptr %0) #7, !srcloc !4
  ret void
}

; Function Attrs: mustprogress nounwind uwtable
define linkonce_odr void @_ZN6icu_7514ConstChar16PtrC2EPKDs(ptr noundef nonnull align 8 dereferenceable(8) %this, ptr noundef %p) unnamed_addr #0 comdat align 2 {
entry:
  %this.addr = alloca ptr, align 8
  %p.addr = alloca ptr, align 8
  store ptr %this, ptr %this.addr, align 8
  store ptr %p, ptr %p.addr, align 8
  %this1 = load ptr, ptr %this.addr, align 8
  %p_ = getelementptr inbounds %"class.icu_75::ConstChar16Ptr", ptr %this1, i32 0, i32 0
  %0 = load ptr, ptr %p.addr, align 8
  store ptr %0, ptr %p_, align 8
  ret void
}

; Function Attrs: mustprogress uwtable
define internal noundef ptr @_ZN6icu_75L14_createEscPerlERKNS_13UnicodeStringENS_14Transliterator5TokenE(ptr noundef nonnull align 8 dereferenceable(64) %ID, ptr %.coerce) #1 personality ptr @__gxx_personality_v0 {
entry:
  %retval = alloca ptr, align 8
  %0 = alloca %"union.icu_75::Transliterator::Token", align 8
  %ID.addr = alloca ptr, align 8
  %cleanup.cond = alloca i1, align 1
  %ref.tmp = alloca %"class.icu_75::UnicodeString", align 8
  %agg.tmp = alloca %"class.icu_75::ConstChar16Ptr", align 8
  %exn.slot = alloca ptr, align 8
  %ehselector.slot = alloca i32, align 4
  %cleanup.cond1 = alloca i1, align 1
  %cleanup.cond4 = alloca i1, align 1
  %ref.tmp5 = alloca %"class.icu_75::UnicodeString", align 8
  %cleanup.cond8 = alloca i1, align 1
  %coerce.dive = getelementptr inbounds %"union.icu_75::Transliterator::Token", ptr %0, i32 0, i32 0
  store ptr %.coerce, ptr %coerce.dive, align 8
  store ptr %ID, ptr %ID.addr, align 8
  %call = call noundef ptr @_ZN6icu_757UMemorynwEm(i64 noundef 240) #7
  %new.isnull = icmp eq ptr %call, null
  store i1 false, ptr %cleanup.cond, align 1
  store i1 false, ptr %cleanup.cond1, align 1
  store i1 false, ptr %cleanup.cond4, align 1
  store i1 false, ptr %cleanup.cond8, align 1
  br i1 %new.isnull, label %new.cont, label %new.notnull

new.notnull:                                      ; preds = %entry
  store i1 true, ptr %cleanup.cond, align 1
  %1 = load ptr, ptr %ID.addr, align 8
  invoke void @_ZN6icu_7514ConstChar16PtrC2EPKDs(ptr noundef nonnull align 8 dereferenceable(8) %agg.tmp, ptr noundef @_ZN6icu_75L7PERLPREE)
          to label %invoke.cont unwind label %lpad

invoke.cont:                                      ; preds = %new.notnull
  store i1 true, ptr %cleanup.cond1, align 1
  invoke void @_ZN6icu_7513UnicodeStringC1EaNS_14ConstChar16PtrEi(ptr noundef nonnull align 8 dereferenceable(64) %ref.tmp, i8 noundef signext 1, ptr noundef %agg.tmp, i32 noundef 3)
          to label %invoke.cont3 unwind label %lpad2

invoke.cont3:                                     ; preds = %invoke.cont
  store i1 true, ptr %cleanup.cond4, align 1
  %2 = load i16, ptr @_ZN6icu_75L6RBRACEE, align 2
  invoke void @_ZN6icu_7513UnicodeStringC1EDs(ptr noundef nonnull align 8 dereferenceable(64) %ref.tmp5, i16 noundef zeroext %2)
          to label %invoke.cont7 unwind label %lpad6

invoke.cont7:                                     ; preds = %invoke.cont3
  store i1 true, ptr %cleanup.cond8, align 1
  invoke void @_ZN6icu_7520EscapeTransliteratorC1ERKNS_13UnicodeStringES3_S3_iiaPS0_(ptr noundef nonnull align 8 dereferenceable(240) %call, ptr noundef nonnull align 8 dereferenceable(64) %1, ptr noundef nonnull align 8 dereferenceable(64) %ref.tmp, ptr noundef nonnull align 8 dereferenceable(64) %ref.tmp5, i32 noundef 16, i32 noundef 1, i8 noundef signext 1, ptr noundef null)
          to label %invoke.cont10 unwind label %lpad9

invoke.cont10:                                    ; preds = %invoke.cont7
  store i1 false, ptr %cleanup.cond, align 1
  br label %new.cont

new.cont:                                         ; preds = %invoke.cont10, %entry
  %3 = phi ptr [ %call, %invoke.cont10 ], [ null, %entry ]
  store ptr %3, ptr %retval, align 8
  %cleanup.is_active = load i1, ptr %cleanup.cond8, align 1
  br i1 %cleanup.is_active, label %cleanup.action, label %cleanup.done

cleanup.action:                                   ; preds = %new.cont
  call void @_ZN6icu_7513UnicodeStringD1Ev(ptr noundef nonnull align 8 dereferenceable(64) %ref.tmp5) #7
  br label %cleanup.done

cleanup.done:                                     ; preds = %cleanup.action, %new.cont
  %cleanup.is_active14 = load i1, ptr %cleanup.cond4, align 1
  br i1 %cleanup.is_active14, label %cleanup.action15, label %cleanup.done16

cleanup.action15:                                 ; preds = %cleanup.done
  call void @_ZN6icu_7513UnicodeStringD1Ev(ptr noundef nonnull align 8 dereferenceable(64) %ref.tmp) #7
  br label %cleanup.done16

cleanup.done16:                                   ; preds = %cleanup.action15, %cleanup.done
  %cleanup.is_active20 = load i1, ptr %cleanup.cond1, align 1
  br i1 %cleanup.is_active20, label %cleanup.action21, label %cleanup.done22

cleanup.action21:                                 ; preds = %cleanup.done16
  call void @_ZN6icu_7514ConstChar16PtrD2Ev(ptr noundef nonnull align 8 dereferenceable(8) %agg.tmp) #7
  br label %cleanup.done22

cleanup.done22:                                   ; preds = %cleanup.action21, %cleanup.done16
  %4 = load ptr, ptr %retval, align 8
  ret ptr %4

lpad:                                             ; preds = %new.notnull
  %5 = landingpad { ptr, i32 }
          cleanup
  %6 = extractvalue { ptr, i32 } %5, 0
  store ptr %6, ptr %exn.slot, align 8
  %7 = extractvalue { ptr, i32 } %5, 1
  store i32 %7, ptr %ehselector.slot, align 4
  br label %ehcleanup27

lpad2:                                            ; preds = %invoke.cont
  %8 = landingpad { ptr, i32 }
          cleanup
  %9 = extractvalue { ptr, i32 } %8, 0
  store ptr %9, ptr %exn.slot, align 8
  %10 = extractvalue { ptr, i32 } %8, 1
  store i32 %10, ptr %ehselector.slot, align 4
  br label %ehcleanup23

lpad6:                                            ; preds = %invoke.cont3
  %11 = landingpad { ptr, i32 }
          cleanup
  %12 = extractvalue { ptr, i32 } %11, 0
  store ptr %12, ptr %exn.slot, align 8
  %13 = extractvalue { ptr, i32 } %11, 1
  store i32 %13, ptr %ehselector.slot, align 4
  br label %ehcleanup

lpad9:                                            ; preds = %invoke.cont7
  %14 = landingpad { ptr, i32 }
          cleanup
  %15 = extractvalue { ptr, i32 } %14, 0
  store ptr %15, ptr %exn.slot, align 8
  %16 = extractvalue { ptr, i32 } %14, 1
  store i32 %16, ptr %ehselector.slot, align 4
  %cleanup.is_active11 = load i1, ptr %cleanup.cond8, align 1
  br i1 %cleanup.is_active11, label %cleanup.action12, label %cleanup.done13

cleanup.action12:                                 ; preds = %lpad9
  call void @_ZN6icu_7513UnicodeStringD1Ev(ptr noundef nonnull align 8 dereferenceable(64) %ref.tmp5) #7
  br label %cleanup.done13

cleanup.done13:                                   ; preds = %cleanup.action12, %lpad9
  br label %ehcleanup

ehcleanup:                                        ; preds = %cleanup.done13, %lpad6
  %cleanup.is_active17 = load i1, ptr %cleanup.cond4, align 1
  br i1 %cleanup.is_active17, label %cleanup.action18, label %cleanup.done19

cleanup.action18:                                 ; preds = %ehcleanup
  call void @_ZN6icu_7513UnicodeStringD1Ev(ptr noundef nonnull align 8 dereferenceable(64) %ref.tmp) #7
  br label %cleanup.done19

cleanup.done19:                                   ; preds = %cleanup.action18, %ehcleanup
  br label %ehcleanup23

ehcleanup23:                                      ; preds = %cleanup.done19, %lpad2
  %cleanup.is_active24 = load i1, ptr %cleanup.cond1, align 1
  br i1 %cleanup.is_active24, label %cleanup.action25, label %cleanup.done26

cleanup.action25:                                 ; preds = %ehcleanup23
  call void @_ZN6icu_7514ConstChar16PtrD2Ev(ptr noundef nonnull align 8 dereferenceable(8) %agg.tmp) #7
  br label %cleanup.done26

cleanup.done26:                                   ; preds = %cleanup.action25, %ehcleanup23
  br label %ehcleanup27

ehcleanup27:                                      ; preds = %cleanup.done26, %lpad
  %cleanup.is_active28 = load i1, ptr %cleanup.cond, align 1
  br i1 %cleanup.is_active28, label %cleanup.action29, label %cleanup.done30

cleanup.action29:                                 ; preds = %ehcleanup27
  call void @_ZN6icu_757UMemorydlEPv(ptr noundef %call) #7
  br label %cleanup.done30

cleanup.done30:                                   ; preds = %cleanup.action29, %ehcleanup27
  br label %eh.resume

eh.resume:                                        ; preds = %cleanup.done30
  %exn = load ptr, ptr %exn.slot, align 8
  %sel = load i32, ptr %ehselector.slot, align 4
  %lpad.val = insertvalue { ptr, i32 } poison, ptr %exn, 0
  %lpad.val31 = insertvalue { ptr, i32 } %lpad.val, i32 %sel, 1
  resume { ptr, i32 } %lpad.val31
}