; Function Attrs: mustprogress uwtable
define internal noundef ptr @_ZN6icu_75L14_createEscPerlERKNS_13UnicodeStringENS_14Transliterator5TokenE(ptr noundef nonnull align 8 dereferenceable(64) %ID, ptr nocapture readnone %.coerce) #1 personality ptr @__gxx_personality_v0 {
entry:
  %ref.tmp = alloca %"class.icu_75::UnicodeString", align 8
  %agg.tmp = alloca %"class.icu_75::ConstChar16Ptr", align 8
  %ref.tmp5 = alloca %"class.icu_75::UnicodeString", align 8
  %call = tail call noundef ptr @_ZN6icu_757UMemorynwEm(i64 noundef 240) #9
  %new.isnull.not = icmp eq ptr %call, null
  br i1 %new.isnull.not, label %cleanup.done22, label %new.notnull

new.notnull:                                      ; preds = %entry
  store ptr @_ZN6icu_75L7PERLPREE, ptr %agg.tmp, align 8
  invoke void @_ZN6icu_7513UnicodeStringC1EaNS_14ConstChar16PtrEi(ptr noundef nonnull align 8 dereferenceable(64) %ref.tmp, i8 noundef signext 1, ptr noundef nonnull %agg.tmp, i32 noundef 3)
          to label %invoke.cont3 unwind label %lpad2

invoke.cont3:                                     ; preds = %new.notnull
  invoke void @_ZN6icu_7513UnicodeStringC1EDs(ptr noundef nonnull align 8 dereferenceable(64) %ref.tmp5, i16 noundef zeroext 125)
          to label %invoke.cont7 unwind label %lpad6

invoke.cont7:                                     ; preds = %invoke.cont3
  invoke void @_ZN6icu_7520EscapeTransliteratorC1ERKNS_13UnicodeStringES3_S3_iiaPS0_(ptr noundef nonnull align 8 dereferenceable(240) %call, ptr noundef nonnull align 8 dereferenceable(64) %ID, ptr noundef nonnull align 8 dereferenceable(64) %ref.tmp, ptr noundef nonnull align 8 dereferenceable(64) %ref.tmp5, i32 noundef 16, i32 noundef 1, i8 noundef signext 1, ptr noundef null)
          to label %cleanup.action unwind label %lpad9

cleanup.action:                                   ; preds = %invoke.cont7
  call void @_ZN6icu_7513UnicodeStringD1Ev(ptr noundef nonnull align 8 dereferenceable(64) %ref.tmp5) #9
  call void @_ZN6icu_7513UnicodeStringD1Ev(ptr noundef nonnull align 8 dereferenceable(64) %ref.tmp) #9
  %0 = load ptr, ptr %agg.tmp, align 8
  call void asm sideeffect "", "rm,~{memory},~{dirflag},~{fpsr},~{flags}"(ptr %0) #9, !srcloc !4
  br label %cleanup.done22

cleanup.done22:                                   ; preds = %entry, %cleanup.action
  ret ptr %call

lpad2:                                            ; preds = %new.notnull
  %1 = landingpad { ptr, i32 }
          cleanup
  br label %cleanup.action25

lpad6:                                            ; preds = %invoke.cont3
  %2 = landingpad { ptr, i32 }
          cleanup
  br label %cleanup.action18

lpad9:                                            ; preds = %invoke.cont7
  %3 = landingpad { ptr, i32 }
          cleanup
  call void @_ZN6icu_7513UnicodeStringD1Ev(ptr noundef nonnull align 8 dereferenceable(64) %ref.tmp5) #9
  br label %cleanup.action18

cleanup.action18:                                 ; preds = %lpad6, %lpad9
  %.pn = phi { ptr, i32 } [ %3, %lpad9 ], [ %2, %lpad6 ]
  call void @_ZN6icu_7513UnicodeStringD1Ev(ptr noundef nonnull align 8 dereferenceable(64) %ref.tmp) #9
  br label %cleanup.action25

cleanup.action25:                                 ; preds = %lpad2, %cleanup.action18
  %.pn.pn = phi { ptr, i32 } [ %.pn, %cleanup.action18 ], [ %1, %lpad2 ]
  %4 = load ptr, ptr %agg.tmp, align 8
  call void asm sideeffect "", "rm,~{memory},~{dirflag},~{fpsr},~{flags}"(ptr %4) #9, !srcloc !4
  call void @_ZN6icu_757UMemorydlEPv(ptr noundef nonnull %call) #9
  resume { ptr, i32 } %.pn.pn
}